target datalayout = "e-m:e-p270:32:32-p271:32:32-p272:64:64-i64:64-i128:128-f80:128-n8:16:32:64-S128"
target triple = "x86_64-pc-linux-gnu"

%struct.AVBPrint = type { ptr, i32, i32, i32, [1 x i8], [1000 x i8] }

@.str.167 = private unnamed_addr constant [6 x i8] c"%0*ld\00", align 1

; Function Attrs: inlinehint nounwind uwtable
define internal i32 @av_bprint_is_complete(ptr noundef %0) #11 {
  %2 = alloca ptr, align 8
  store ptr %0, ptr %2, align 8, !tbaa !217
  %3 = load ptr, ptr %2, align 8, !tbaa !217
  %4 = getelementptr inbounds nuw %struct.AVBPrint, ptr %3, i32 0, i32 1
  %5 = load i32, ptr %4, align 8, !tbaa !219
  %6 = load ptr, ptr %2, align 8, !tbaa !217
  %7 = getelementptr inbounds nuw %struct.AVBPrint, ptr %6, i32 0, i32 2
  %8 = load i32, ptr %7, align 4, !tbaa !220
  %9 = icmp ult i32 %5, %8
  %10 = zext i1 %9 to i32
  ret i32 %10
}

; Function Attrs: inlinehint nounwind willreturn memory(none) uwtable
define internal i32 @av_isdigit(i32 noundef %0) #10 {
  %2 = alloca i32, align 4
  store i32 %0, ptr %2, align 4, !tbaa !30
  %3 = load i32, ptr %2, align 4, !tbaa !30
  %4 = icmp sge i32 %3, 48
  br i1 %4, label %5, label %8

5:                                                ; preds = %1
  %6 = load i32, ptr %2, align 4, !tbaa !30
  %7 = icmp sle i32 %6, 57
  br label %8

8:                                                ; preds = %5, %1
  %9 = phi i1 [ false, %1 ], [ %7, %5 ]
  %10 = zext i1 %9 to i32
  ret i32 %10
}

; Function Attrs: nounwind uwtable
define internal i32 @replace_int_data_in_filename(ptr noundef %0, ptr noundef %1, i8 noundef signext %2, i64 noundef %3) #0 {
  %5 = alloca i32, align 4
  %6 = alloca ptr, align 8
  %7 = alloca ptr, align 8
  %8 = alloca i8, align 1
  %9 = alloca i64, align 8
  %10 = alloca ptr, align 8
  %11 = alloca i8, align 1
  %12 = alloca i32, align 4
  %13 = alloca i32, align 4
  %14 = alloca i32, align 4
  %15 = alloca %struct.AVBPrint, align 8
  %16 = alloca i32, align 4
  %17 = alloca i32, align 4
  store ptr %0, ptr %6, align 8, !tbaa !214
  store ptr %1, ptr %7, align 8, !tbaa !73
  store i8 %2, ptr %8, align 1, !tbaa !109
  store i64 %3, ptr %9, align 8, !tbaa !72
  call void @llvm.lifetime.start.p0(i64 8, ptr %10) #15
  call void @llvm.lifetime.start.p0(i64 1, ptr %11) #15
  call void @llvm.lifetime.start.p0(i64 4, ptr %12) #15
  call void @llvm.lifetime.start.p0(i64 4, ptr %13) #15
  call void @llvm.lifetime.start.p0(i64 4, ptr %14) #15
  store i32 0, ptr %14, align 4, !tbaa !30
  call void @llvm.lifetime.start.p0(i64 1024, ptr %15) #15
  call void @llvm.lifetime.start.p0(i64 4, ptr %16) #15
  call void @av_bprint_init(ptr noundef %15, i32 noundef 0, i32 noundef -1)
  %18 = load ptr, ptr %7, align 8, !tbaa !73
  store ptr %18, ptr %10, align 8, !tbaa !73
  br label %19

19:                                               ; preds = %110, %4
  %20 = load ptr, ptr %10, align 8, !tbaa !73
  %21 = load i8, ptr %20, align 1, !tbaa !109
  store i8 %21, ptr %11, align 1, !tbaa !109
  %22 = load i8, ptr %11, align 1, !tbaa !109
  %23 = sext i8 %22 to i32
  %24 = icmp eq i32 %23, 0
  br i1 %24, label %25, label %26

25:                                               ; preds = %19
  br label %117

26:                                               ; preds = %19
  %27 = load i8, ptr %11, align 1, !tbaa !109
  %28 = sext i8 %27 to i32
  %29 = icmp eq i32 %28, 37
  br i1 %29, label %30, label %37

30:                                               ; preds = %26
  %31 = load ptr, ptr %10, align 8, !tbaa !73
  %32 = getelementptr inbounds i8, ptr %31, i64 1
  %33 = load i8, ptr %32, align 1, !tbaa !109
  %34 = sext i8 %33 to i32
  %35 = icmp eq i32 %34, 37
  br i1 %35, label %36, label %37

36:                                               ; preds = %30
  store i32 2, ptr %13, align 4, !tbaa !30
  br label %110

37:                                               ; preds = %30, %26
  %38 = load i8, ptr %11, align 1, !tbaa !109
  %39 = sext i8 %38 to i32
  %40 = icmp eq i32 %39, 37
  br i1 %40, label %41, label %108

41:                                               ; preds = %37
  %42 = load ptr, ptr %10, align 8, !tbaa !73
  %43 = getelementptr inbounds i8, ptr %42, i64 1
  %44 = load i8, ptr %43, align 1, !tbaa !109
  %45 = sext i8 %44 to i32
  %46 = call i32 @av_isdigit(i32 noundef %45) #17
  %47 = icmp ne i32 %46, 0
  br i1 %47, label %56, label %48

48:                                               ; preds = %41
  %49 = load ptr, ptr %10, align 8, !tbaa !73
  %50 = getelementptr inbounds i8, ptr %49, i64 1
  %51 = load i8, ptr %50, align 1, !tbaa !109
  %52 = sext i8 %51 to i32
  %53 = load i8, ptr %8, align 1, !tbaa !109
  %54 = sext i8 %53 to i32
  %55 = icmp eq i32 %52, %54
  br i1 %55, label %56, label %108

56:                                               ; preds = %48, %41
  store i32 0, ptr %12, align 4, !tbaa !30
  store i32 1, ptr %13, align 4, !tbaa !30
  br label %57

57:                                               ; preds = %66, %56
  %58 = load ptr, ptr %10, align 8, !tbaa !73
  %59 = load i32, ptr %13, align 4, !tbaa !30
  %60 = sext i32 %59 to i64
  %61 = getelementptr inbounds i8, ptr %58, i64 %60
  %62 = load i8, ptr %61, align 1, !tbaa !109
  %63 = sext i8 %62 to i32
  %64 = call i32 @av_isdigit(i32 noundef %63) #17
  %65 = icmp ne i32 %64, 0
  br i1 %65, label %66, label %79

66:                                               ; preds = %57
  %67 = load i32, ptr %12, align 4, !tbaa !30
  %68 = mul nsw i32 %67, 10
  %69 = load ptr, ptr %10, align 8, !tbaa !73
  %70 = load i32, ptr %13, align 4, !tbaa !30
  %71 = sext i32 %70 to i64
  %72 = getelementptr inbounds i8, ptr %69, i64 %71
  %73 = load i8, ptr %72, align 1, !tbaa !109
  %74 = sext i8 %73 to i32
  %75 = add nsw i32 %68, %74
  %76 = sub nsw i32 %75, 48
  store i32 %76, ptr %12, align 4, !tbaa !30
  %77 = load i32, ptr %13, align 4, !tbaa !30
  %78 = add nsw i32 %77, 1
  store i32 %78, ptr %13, align 4, !tbaa !30
  br label %57, !llvm.loop !216

79:                                               ; preds = %57
  %80 = load ptr, ptr %10, align 8, !tbaa !73
  %81 = load i32, ptr %13, align 4, !tbaa !30
  %82 = sext i32 %81 to i64
  %83 = getelementptr inbounds i8, ptr %80, i64 %82
  %84 = load i8, ptr %83, align 1, !tbaa !109
  %85 = sext i8 %84 to i32
  %86 = load i8, ptr %8, align 1, !tbaa !109
  %87 = sext i8 %86 to i32
  %88 = icmp eq i32 %85, %87
  br i1 %88, label %89, label %107

89:                                               ; preds = %79
  %90 = load i64, ptr %9, align 8, !tbaa !72
  %91 = icmp slt i64 %90, 0
  br i1 %91, label %92, label %94

92:                                               ; preds = %89
  %93 = load i32, ptr %12, align 4, !tbaa !30
  br label %97

94:                                               ; preds = %89
  %95 = load i32, ptr %12, align 4, !tbaa !30
  %96 = add nsw i32 %95, 1
  store i32 %96, ptr %12, align 4, !tbaa !30
  br label %97

97:                                               ; preds = %94, %92
  %98 = phi i32 [ %93, %92 ], [ %95, %94 ]
  %99 = load i64, ptr %9, align 8, !tbaa !72
  call void (ptr, ptr, ...) @av_bprintf(ptr noundef %15, ptr noundef @.str.167, i32 noundef %98, i64 noundef %99)
  %100 = load i32, ptr %13, align 4, !tbaa !30
  %101 = add nsw i32 %100, 1
  %102 = load ptr, ptr %10, align 8, !tbaa !73
  %103 = sext i32 %101 to i64
  %104 = getelementptr inbounds i8, ptr %102, i64 %103
  store ptr %104, ptr %10, align 8, !tbaa !73
  store i32 0, ptr %13, align 4, !tbaa !30
  %105 = load i32, ptr %14, align 4, !tbaa !30
  %106 = add nsw i32 %105, 1
  store i32 %106, ptr %14, align 4, !tbaa !30
  br label %107

107:                                              ; preds = %97, %79
  br label %109

108:                                              ; preds = %48, %37
  store i32 1, ptr %13, align 4, !tbaa !30
  br label %109

109:                                              ; preds = %108, %107
  br label %110

110:                                              ; preds = %109, %36
  %111 = load ptr, ptr %10, align 8, !tbaa !73
  %112 = load i32, ptr %13, align 4, !tbaa !30
  call void @av_bprint_append_data(ptr noundef %15, ptr noundef %111, i32 noundef %112)
  %113 = load i32, ptr %13, align 4, !tbaa !30
  %114 = load ptr, ptr %10, align 8, !tbaa !73
  %115 = sext i32 %113 to i64
  %116 = getelementptr inbounds i8, ptr %114, i64 %115
  store ptr %116, ptr %10, align 8, !tbaa !73
  br label %19

117:                                              ; preds = %25
  %118 = call i32 @av_bprint_is_complete(ptr noundef %15)
  %119 = icmp ne i32 %118, 0
  br i1 %119, label %122, label %120

120:                                              ; preds = %117
  %121 = call i32 @av_bprint_finalize(ptr noundef %15, ptr noundef null)
  store i32 -12, ptr %5, align 4
  store i32 1, ptr %17, align 4
  br label %130

122:                                              ; preds = %117
  %123 = load ptr, ptr %6, align 8, !tbaa !214
  %124 = call i32 @av_bprint_finalize(ptr noundef %15, ptr noundef %123)
  store i32 %124, ptr %16, align 4, !tbaa !30
  %125 = icmp slt i32 %124, 0
  br i1 %125, label %126, label %128

126:                                              ; preds = %122
  %127 = load i32, ptr %16, align 4, !tbaa !30
  store i32 %127, ptr %5, align 4
  store i32 1, ptr %17, align 4
  br label %130

128:                                              ; preds = %122
  %129 = load i32, ptr %14, align 4, !tbaa !30
  store i32 %129, ptr %5, align 4
  store i32 1, ptr %17, align 4
  br label %130

130:                                              ; preds = %128, %126, %120
  call void @llvm.lifetime.end.p0(i64 4, ptr %16) #15
  call void @llvm.lifetime.end.p0(i64 1024, ptr %15) #15
  call void @llvm.lifetime.end.p0(i64 4, ptr %14) #15
  call void @llvm.lifetime.end.p0(i64 4, ptr %13) #15
  call void @llvm.lifetime.end.p0(i64 4, ptr %12) #15
  call void @llvm.lifetime.end.p0(i64 1, ptr %11) #15
  call void @llvm.lifetime.end.p0(i64 8, ptr %10) #15
  %131 = load i32, ptr %5, align 4
  ret i32 %131
}