; Function Attrs: nounwind uwtable
define internal fastcc i32 @replace_int_data_in_filename(ptr noundef %0, ptr noundef %1, i8 noundef signext range(i8 100, 119) %2, i64 noundef %3) unnamed_addr #0 {
  %5 = alloca %struct.AVBPrint, align 8
  call void @llvm.lifetime.start.p0(i64 1024, ptr nonnull %5) #17
  call void @av_bprint_init(ptr noundef nonnull %5, i32 noundef 0, i32 noundef -1) #17
  br label %6

6:                                                ; preds = %.critedge, %4
  %.036 = phi ptr [ %1, %4 ], [ %35, %.critedge ]
  %.032 = phi i32 [ 0, %4 ], [ %.1, %.critedge ]
  %7 = load i8, ptr %.036, align 1, !tbaa !102
  switch i8 %7, label %.critedge [
    i8 0, label %36
    i8 37, label %8
  ]

8:                                                ; preds = %6
  %9 = getelementptr inbounds nuw i8, ptr %.036, i64 1
  %10 = load i8, ptr %9, align 1, !tbaa !102
  %11 = icmp eq i8 %10, 37
  br i1 %11, label %.critedge, label %12

12:                                               ; preds = %8
  %13 = sext i8 %10 to i32
  %14 = add nsw i32 %13, -48
  %15 = icmp ult i32 %14, 10
  %16 = icmp eq i8 %10, %2
  %or.cond = or i1 %16, %15
  br i1 %or.cond, label %.preheader, label %.critedge

.preheader:                                       ; preds = %12
  %17 = add nsw i32 %13, -58
  %18 = icmp ult i32 %17, -10
  br i1 %18, label %._crit_edge, label %.lr.ph

.lr.ph:                                           ; preds = %.preheader, %.lr.ph
  %indvars.iv = phi i64 [ %indvars.iv.next, %.lr.ph ], [ 1, %.preheader ]
  %19 = phi i32 [ %25, %.lr.ph ], [ %13, %.preheader ]
  %.03546 = phi i32 [ %22, %.lr.ph ], [ 0, %.preheader ]
  %20 = mul nsw i32 %.03546, 10
  %21 = add i32 %20, -48
  %22 = add i32 %21, %19
  %indvars.iv.next = add nuw nsw i64 %indvars.iv, 1
  %23 = getelementptr inbounds nuw i8, ptr %.036, i64 %indvars.iv.next
  %24 = load i8, ptr %23, align 1, !tbaa !102
  %25 = sext i8 %24 to i32
  %26 = add nsw i32 %25, -58
  %27 = icmp ult i32 %26, -10
  br i1 %27, label %._crit_edge.loopexit, label %.lr.ph, !llvm.loop !265

._crit_edge.loopexit:                             ; preds = %.lr.ph
  %28 = trunc nuw nsw i64 %indvars.iv.next to i32
  br label %._crit_edge

._crit_edge:                                      ; preds = %._crit_edge.loopexit, %.preheader
  %.lcssa45 = phi i64 [ 1, %.preheader ], [ %indvars.iv.next, %._crit_edge.loopexit ]
  %.035.lcssa = phi i32 [ 0, %.preheader ], [ %22, %._crit_edge.loopexit ]
  %.134.lcssa = phi i32 [ 1, %.preheader ], [ %28, %._crit_edge.loopexit ]
  %.lcssa = phi i8 [ %10, %.preheader ], [ %24, %._crit_edge.loopexit ]
  %29 = icmp eq i8 %.lcssa, %2
  br i1 %29, label %30, label %.critedge

30:                                               ; preds = %._crit_edge
  %31 = getelementptr inbounds nuw i8, ptr %.036, i64 %.lcssa45
  call void (ptr, ptr, ...) @av_bprintf(ptr noundef nonnull %5, ptr noundef nonnull @.str.167, i32 noundef %.035.lcssa, i64 noundef %3) #17
  %32 = getelementptr inbounds nuw i8, ptr %31, i64 1
  %33 = add nsw i32 %.032, 1
  br label %.critedge

.critedge:                                        ; preds = %6, %8, %12, %30, %._crit_edge
  %.137 = phi ptr [ %32, %30 ], [ %.036, %._crit_edge ], [ %.036, %8 ], [ %.036, %12 ], [ %.036, %6 ]
  %.033 = phi i32 [ 0, %30 ], [ %.134.lcssa, %._crit_edge ], [ 2, %8 ], [ 1, %12 ], [ 1, %6 ]
  %.1 = phi i32 [ %33, %30 ], [ %.032, %._crit_edge ], [ %.032, %8 ], [ %.032, %12 ], [ %.032, %6 ]
  call void @av_bprint_append_data(ptr noundef nonnull %5, ptr noundef nonnull %.137, i32 noundef %.033) #17
  %34 = zext nneg i32 %.033 to i64
  %35 = getelementptr inbounds nuw i8, ptr %.137, i64 %34
  br label %6

36:                                               ; preds = %6
  %37 = getelementptr inbounds nuw i8, ptr %5, i64 8
  %.val = load i32, ptr %37, align 8, !tbaa !227
  %38 = getelementptr inbounds nuw i8, ptr %5, i64 12
  %.val43 = load i32, ptr %38, align 4, !tbaa !229
  %.not = icmp ult i32 %.val, %.val43
  br i1 %.not, label %41, label %39

39:                                               ; preds = %36
  %40 = call i32 @av_bprint_finalize(ptr noundef nonnull %5, ptr noundef null) #17
  br label %44

41:                                               ; preds = %36
  %42 = call i32 @av_bprint_finalize(ptr noundef nonnull %5, ptr noundef %0) #17
  %43 = icmp slt i32 %42, 0
  %..032 = select i1 %43, i32 %42, i32 %.032
  br label %44

44:                                               ; preds = %41, %39
  %.0 = phi i32 [ -12, %39 ], [ %..032, %41 ]
  call void @llvm.lifetime.end.p0(i64 1024, ptr nonnull %5) #17
  ret i32 %.0
}